; Function Attrs: mustprogress nofree norecurse nosync nounwind willreturn memory(argmem: readwrite) uwtable
define void @ossl_quic_txpim_pkt_add_cfq_item(ptr noundef captures(none) %0, ptr noundef initializes((0, 16)) %1) local_unnamed_addr #3 {
  %3 = getelementptr inbounds nuw i8, ptr %0, i64 104
  %4 = load ptr, ptr %3, align 8, !tbaa !30
  %5 = getelementptr inbounds nuw i8, ptr %1, i64 8
  store ptr %4, ptr %5, align 8, !tbaa !31
  store ptr null, ptr %1, align 8, !tbaa !33
  store ptr %1, ptr %3, align 8, !tbaa !30
  ret void
}